; Function Attrs: mustprogress nofree norecurse nosync nounwind willreturn memory(argmem: readwrite) uwtable
define void @Gia_MmFixedEntryRecycle(ptr noundef captures(none) %0, ptr noundef initializes((0, 8)) %1) local_unnamed_addr #6 {
  %3 = getelementptr inbounds nuw i8, ptr %0, i64 8
  %4 = load i32, ptr %3, align 8, !tbaa !15
  %5 = add nsw i32 %4, -1
  store i32 %5, ptr %3, align 8, !tbaa !15
  %6 = getelementptr inbounds nuw i8, ptr %0, i64 16
  %7 = load ptr, ptr %6, align 8, !tbaa !22
  store ptr %7, ptr %1, align 8, !tbaa !18
  store ptr %1, ptr %6, align 8, !tbaa !22
  ret void
}